target datalayout = "e-m:e-p270:32:32-p271:32:32-p272:64:64-i64:64-i128:128-f80:128-n8:16:32:64-S128"
target triple = "x86_64-pc-linux-gnu"

%struct.JsonLexContext = type { ptr, i64, i32, ptr, ptr, ptr, i8, i32, i32, i32, i32, ptr, ptr, ptr, i8, ptr, ptr }
%struct.PopulateArrayContext = type { ptr, ptr, ptr, ptr, ptr, ptr, ptr, i32, ptr }
%struct.PopulateArrayState = type { ptr, ptr, ptr, ptr, i32 }

; Function Attrs: nounwind uwtable
define internal zeroext i1 @populate_array_assign_ndims(ptr noundef %0, i32 noundef %1) #0 {
  %3 = alloca i1, align 1
  %4 = alloca ptr, align 8
  %5 = alloca i32, align 4
  %6 = alloca i32, align 4
  %7 = alloca i32, align 4
  store ptr %0, ptr %4, align 8
  store i32 %1, ptr %5, align 4
  call void @llvm.lifetime.start.p0(i64 4, ptr %6) #10
  %8 = load i32, ptr %5, align 4
  %9 = icmp sle i32 %8, 0
  br i1 %9, label %10, label %13

10:                                               ; preds = %2
  %11 = load ptr, ptr %4, align 8
  %12 = load i32, ptr %5, align 4
  call void @populate_array_report_expected_array(ptr noundef %11, i32 noundef %12)
  store i1 false, ptr %3, align 1
  store i32 1, ptr %7, align 4
  br label %44

13:                                               ; preds = %2
  %14 = load i32, ptr %5, align 4
  %15 = load ptr, ptr %4, align 8
  %16 = getelementptr inbounds nuw %struct.PopulateArrayContext, ptr %15, i32 0, i32 7
  store i32 %14, ptr %16, align 8
  %17 = load i32, ptr %5, align 4
  %18 = sext i32 %17 to i64
  %19 = mul i64 4, %18
  %20 = call ptr @palloc(i64 noundef %19)
  %21 = load ptr, ptr %4, align 8
  %22 = getelementptr inbounds nuw %struct.PopulateArrayContext, ptr %21, i32 0, i32 5
  store ptr %20, ptr %22, align 8
  %23 = load i32, ptr %5, align 4
  %24 = sext i32 %23 to i64
  %25 = mul i64 4, %24
  %26 = call ptr @palloc0(i64 noundef %25)
  %27 = load ptr, ptr %4, align 8
  %28 = getelementptr inbounds nuw %struct.PopulateArrayContext, ptr %27, i32 0, i32 6
  store ptr %26, ptr %28, align 8
  store i32 0, ptr %6, align 4
  br label %29

29:                                               ; preds = %40, %13
  %30 = load i32, ptr %6, align 4
  %31 = load i32, ptr %5, align 4
  %32 = icmp slt i32 %30, %31
  br i1 %32, label %33, label %43

33:                                               ; preds = %29
  %34 = load ptr, ptr %4, align 8
  %35 = getelementptr inbounds nuw %struct.PopulateArrayContext, ptr %34, i32 0, i32 5
  %36 = load ptr, ptr %35, align 8
  %37 = load i32, ptr %6, align 4
  %38 = sext i32 %37 to i64
  %39 = getelementptr inbounds i32, ptr %36, i64 %38
  store i32 -1, ptr %39, align 4
  br label %40

40:                                               ; preds = %33
  %41 = load i32, ptr %6, align 4
  %42 = add i32 %41, 1
  store i32 %42, ptr %6, align 4
  br label %29, !llvm.loop !32

43:                                               ; preds = %29
  store i1 true, ptr %3, align 1
  store i32 1, ptr %7, align 4
  br label %44

44:                                               ; preds = %43, %10
  call void @llvm.lifetime.end.p0(i64 4, ptr %6) #10
  %45 = load i1, ptr %3, align 1
  ret i1 %45
}

; Function Attrs: nounwind uwtable
define internal i32 @populate_array_scalar(ptr noundef %0, ptr noundef %1, i32 noundef %2) #0 {
  %4 = alloca i32, align 4
  %5 = alloca ptr, align 8
  %6 = alloca ptr, align 8
  %7 = alloca i32, align 4
  %8 = alloca ptr, align 8
  %9 = alloca ptr, align 8
  %10 = alloca i32, align 4
  %11 = alloca i32, align 4
  store ptr %0, ptr %5, align 8
  store ptr %1, ptr %6, align 8
  store i32 %2, ptr %7, align 4
  call void @llvm.lifetime.start.p0(i64 8, ptr %8) #10
  %12 = load ptr, ptr %5, align 8
  store ptr %12, ptr %8, align 8
  call void @llvm.lifetime.start.p0(i64 8, ptr %9) #10
  %13 = load ptr, ptr %8, align 8
  %14 = getelementptr inbounds nuw %struct.PopulateArrayState, ptr %13, i32 0, i32 1
  %15 = load ptr, ptr %14, align 8
  store ptr %15, ptr %9, align 8
  call void @llvm.lifetime.start.p0(i64 4, ptr %10) #10
  %16 = load ptr, ptr %8, align 8
  %17 = getelementptr inbounds nuw %struct.PopulateArrayState, ptr %16, i32 0, i32 0
  %18 = load ptr, ptr %17, align 8
  %19 = getelementptr inbounds nuw %struct.JsonLexContext, ptr %18, i32 0, i32 8
  %20 = load i32, ptr %19, align 8
  store i32 %20, ptr %10, align 4
  %21 = load ptr, ptr %9, align 8
  %22 = getelementptr inbounds nuw %struct.PopulateArrayContext, ptr %21, i32 0, i32 7
  %23 = load i32, ptr %22, align 8
  %24 = icmp sle i32 %23, 0
  br i1 %24, label %25, label %31

25:                                               ; preds = %3
  %26 = load ptr, ptr %9, align 8
  %27 = load i32, ptr %10, align 4
  %28 = call zeroext i1 @populate_array_assign_ndims(ptr noundef %26, i32 noundef %27)
  br i1 %28, label %30, label %29

29:                                               ; preds = %25
  store i32 23, ptr %4, align 4
  store i32 1, ptr %11, align 4
  br label %52

30:                                               ; preds = %25
  br label %41

31:                                               ; preds = %3
  %32 = load i32, ptr %10, align 4
  %33 = load ptr, ptr %9, align 8
  %34 = getelementptr inbounds nuw %struct.PopulateArrayContext, ptr %33, i32 0, i32 7
  %35 = load i32, ptr %34, align 8
  %36 = icmp slt i32 %32, %35
  br i1 %36, label %37, label %40

37:                                               ; preds = %31
  %38 = load ptr, ptr %9, align 8
  %39 = load i32, ptr %10, align 4
  call void @populate_array_report_expected_array(ptr noundef %38, i32 noundef %39)
  store i32 23, ptr %4, align 4
  store i32 1, ptr %11, align 4
  br label %52

40:                                               ; preds = %31
  br label %41

41:                                               ; preds = %40, %30
  %42 = load i32, ptr %10, align 4
  %43 = load ptr, ptr %9, align 8
  %44 = getelementptr inbounds nuw %struct.PopulateArrayContext, ptr %43, i32 0, i32 7
  %45 = load i32, ptr %44, align 8
  %46 = icmp eq i32 %42, %45
  br i1 %46, label %47, label %51

47:                                               ; preds = %41
  %48 = load ptr, ptr %6, align 8
  %49 = load ptr, ptr %8, align 8
  %50 = getelementptr inbounds nuw %struct.PopulateArrayState, ptr %49, i32 0, i32 3
  store ptr %48, ptr %50, align 8
  br label %51

51:                                               ; preds = %47, %41
  store i32 0, ptr %4, align 4
  store i32 1, ptr %11, align 4
  br label %52

52:                                               ; preds = %51, %37, %29
  call void @llvm.lifetime.end.p0(i64 4, ptr %10) #10
  call void @llvm.lifetime.end.p0(i64 8, ptr %9) #10
  call void @llvm.lifetime.end.p0(i64 8, ptr %8) #10
  %53 = load i32, ptr %4, align 4
  ret i32 %53
}