; Function Attrs: nounwind uwtable
define internal range(i32 0, 24) i32 @populate_array_scalar(ptr noundef captures(none) %0, ptr noundef %1, i32 %2) #0 {
  %4 = getelementptr inbounds nuw i8, ptr %0, i64 8
  %5 = load ptr, ptr %4, align 8
  %6 = load ptr, ptr %0, align 8
  %7 = getelementptr inbounds nuw i8, ptr %6, i64 56
  %8 = load i32, ptr %7, align 8
  %9 = getelementptr inbounds nuw i8, ptr %5, i64 56
  %10 = load i32, ptr %9, align 8
  %11 = icmp slt i32 %10, 1
  br i1 %11, label %12, label %24

12:                                               ; preds = %3
  %13 = icmp sgt i32 %8, 0
  br i1 %13, label %14, label %populate_array_assign_ndims.exit.thread

populate_array_assign_ndims.exit.thread:          ; preds = %12
  tail call fastcc void @populate_array_report_expected_array(ptr noundef nonnull %5, i32 noundef %8)
  br label %31

14:                                               ; preds = %12
  store i32 %8, ptr %9, align 8
  %15 = zext nneg i32 %8 to i64
  %16 = shl nuw nsw i64 %15, 2
  %17 = tail call ptr @palloc(i64 noundef %16) #15
  %18 = getelementptr inbounds nuw i8, ptr %5, i64 40
  store ptr %17, ptr %18, align 8
  %19 = tail call ptr @palloc0(i64 noundef %16) #15
  %20 = getelementptr inbounds nuw i8, ptr %5, i64 48
  store ptr %19, ptr %20, align 8
  br label %21

21:                                               ; preds = %21, %14
  %indvars.iv.i = phi i64 [ 0, %14 ], [ %indvars.iv.next.i, %21 ]
  %22 = load ptr, ptr %18, align 8
  %23 = getelementptr inbounds nuw i32, ptr %22, i64 %indvars.iv.i
  store i32 -1, ptr %23, align 4
  %indvars.iv.next.i = add nuw nsw i64 %indvars.iv.i, 1
  %exitcond.not.i = icmp eq i64 %indvars.iv.next.i, %15
  br i1 %exitcond.not.i, label %populate_array_assign_ndims.exit.loopexit, label %21, !llvm.loop !35

24:                                               ; preds = %3
  %25 = icmp slt i32 %8, %10
  br i1 %25, label %26, label %populate_array_assign_ndims.exit

26:                                               ; preds = %24
  tail call fastcc void @populate_array_report_expected_array(ptr noundef nonnull %5, i32 noundef %8)
  br label %31

populate_array_assign_ndims.exit.loopexit:        ; preds = %21
  %.pre = load i32, ptr %9, align 8
  br label %populate_array_assign_ndims.exit

populate_array_assign_ndims.exit:                 ; preds = %populate_array_assign_ndims.exit.loopexit, %24
  %27 = phi i32 [ %.pre, %populate_array_assign_ndims.exit.loopexit ], [ %10, %24 ]
  %28 = icmp eq i32 %8, %27
  br i1 %28, label %29, label %31

29:                                               ; preds = %populate_array_assign_ndims.exit
  %30 = getelementptr inbounds nuw i8, ptr %0, i64 24
  store ptr %1, ptr %30, align 8
  br label %31

31:                                               ; preds = %populate_array_assign_ndims.exit.thread, %populate_array_assign_ndims.exit, %29, %26
  %.0 = phi i32 [ 23, %26 ], [ 0, %29 ], [ 0, %populate_array_assign_ndims.exit ], [ 23, %populate_array_assign_ndims.exit.thread ]
  ret i32 %.0
}